target datalayout = "e-m:e-p270:32:32-p271:32:32-p272:64:64-i64:64-i128:128-f80:128-n8:16:32:64-S128"
target triple = "x86_64-pc-linux-gnu"

%union.pthread_mutex_t = type { %struct.__pthread_mutex_s }
%struct.__pthread_mutex_s = type { i32, i32, i32, i32, i32, i16, i16, %struct.__pthread_internal_list }
%struct.__pthread_internal_list = type { ptr, ptr }
%struct.anon = type { i64, ptr, i32, [40 x i8] }
%struct.newmemstruct = type { i64, ptr, i32, [40 x i8] }

@alloc_lock = internal global %union.pthread_mutex_t zeroinitializer, align 8
@memory = internal global [50 x %struct.anon] zeroinitializer, align 16
@memory_overflowed = internal global i32 0, align 4
@newmemory = internal global ptr null, align 8
@.str.10 = private unnamed_addr constant [43 x i8] c"BLAS : Bad memory unallocation! : %4d  %p\0A\00", align 1

; Function Attrs: nounwind uwtable
define void @blas_memory_free(ptr noundef %0) #0 {
  %2 = alloca ptr, align 8
  %3 = alloca i32, align 4
  %4 = alloca i32, align 4
  store ptr %0, ptr %2, align 8, !tbaa !7
  call void @llvm.lifetime.start.p0(i64 4, ptr %3) #9
  store i32 0, ptr %3, align 4, !tbaa !3
  %5 = call i32 @pthread_mutex_lock(ptr noundef @alloc_lock) #9
  br label %6

6:                                                ; preds = %19, %1
  %7 = load i32, ptr %3, align 4, !tbaa !3
  %8 = icmp slt i32 %7, 50
  br i1 %8, label %9, label %17

9:                                                ; preds = %6
  %10 = load i32, ptr %3, align 4, !tbaa !3
  %11 = sext i32 %10 to i64
  %12 = getelementptr inbounds [50 x %struct.anon], ptr @memory, i64 0, i64 %11
  %13 = getelementptr inbounds nuw %struct.anon, ptr %12, i32 0, i32 1
  %14 = load volatile ptr, ptr %13, align 8, !tbaa !21
  %15 = load ptr, ptr %2, align 8, !tbaa !7
  %16 = icmp ne ptr %14, %15
  br label %17

17:                                               ; preds = %9, %6
  %18 = phi i1 [ false, %6 ], [ %16, %9 ]
  br i1 %18, label %19, label %22

19:                                               ; preds = %17
  %20 = load i32, ptr %3, align 4, !tbaa !3
  %21 = add nsw i32 %20, 1
  store i32 %21, ptr %3, align 4, !tbaa !3
  br label %6, !llvm.loop !37

22:                                               ; preds = %17
  %23 = load i32, ptr %3, align 4, !tbaa !3
  %24 = icmp sge i32 %23, 50
  br i1 %24, label %25, label %29

25:                                               ; preds = %22
  %26 = load i32, ptr @memory_overflowed, align 4, !tbaa !3
  %27 = icmp ne i32 %26, 0
  br i1 %27, label %29, label %28

28:                                               ; preds = %25
  br label %87

29:                                               ; preds = %25, %22
  %30 = load i32, ptr @memory_overflowed, align 4, !tbaa !3
  %31 = icmp ne i32 %30, 0
  br i1 %31, label %32, label %35

32:                                               ; preds = %29
  %33 = load i32, ptr %3, align 4, !tbaa !3
  %34 = icmp sge i32 %33, 50
  br label %35

35:                                               ; preds = %32, %29
  %36 = phi i1 [ false, %29 ], [ %34, %32 ]
  %37 = xor i1 %36, true
  %38 = xor i1 %37, true
  %39 = zext i1 %38 to i32
  %40 = sext i32 %39 to i64
  %41 = call i64 @llvm.expect.i64(i64 %40, i64 0)
  %42 = icmp ne i64 %41, 0
  br i1 %42, label %43, label %78

43:                                               ; preds = %35
  br label %44

44:                                               ; preds = %59, %43
  %45 = load i32, ptr %3, align 4, !tbaa !3
  %46 = icmp slt i32 %45, 562
  br i1 %46, label %47, label %57

47:                                               ; preds = %44
  %48 = load ptr, ptr @newmemory, align 8, !tbaa !16
  %49 = load i32, ptr %3, align 4, !tbaa !3
  %50 = sub nsw i32 %49, 50
  %51 = sext i32 %50 to i64
  %52 = getelementptr inbounds %struct.newmemstruct, ptr %48, i64 %51
  %53 = getelementptr inbounds nuw %struct.newmemstruct, ptr %52, i32 0, i32 1
  %54 = load volatile ptr, ptr %53, align 8, !tbaa !29
  %55 = load ptr, ptr %2, align 8, !tbaa !7
  %56 = icmp ne ptr %54, %55
  br label %57

57:                                               ; preds = %47, %44
  %58 = phi i1 [ false, %44 ], [ %56, %47 ]
  br i1 %58, label %59, label %62

59:                                               ; preds = %57
  %60 = load i32, ptr %3, align 4, !tbaa !3
  %61 = add nsw i32 %60, 1
  store i32 %61, ptr %3, align 4, !tbaa !3
  br label %44, !llvm.loop !38

62:                                               ; preds = %57
  br label %63

63:                                               ; preds = %62
  call void asm sideeffect "", "~{memory},~{dirflag},~{fpsr},~{flags}"() #9, !srcloc !39
  br label %64

64:                                               ; preds = %63
  br label %65

65:                                               ; preds = %64
  %66 = load i32, ptr %3, align 4, !tbaa !3
  %67 = sub nsw i32 %66, 50
  %68 = icmp sge i32 %67, 512
  br i1 %68, label %69, label %70

69:                                               ; preds = %65
  br label %87

70:                                               ; preds = %65
  %71 = load ptr, ptr @newmemory, align 8, !tbaa !16
  %72 = load i32, ptr %3, align 4, !tbaa !3
  %73 = sub nsw i32 %72, 50
  %74 = sext i32 %73 to i64
  %75 = getelementptr inbounds %struct.newmemstruct, ptr %71, i64 %74
  %76 = getelementptr inbounds nuw %struct.newmemstruct, ptr %75, i32 0, i32 2
  store volatile i32 0, ptr %76, align 8, !tbaa !18
  %77 = call i32 @pthread_mutex_unlock(ptr noundef @alloc_lock) #9
  store i32 1, ptr %4, align 4
  br label %92

78:                                               ; preds = %35
  br label %79

79:                                               ; preds = %78
  call void asm sideeffect "", "~{memory},~{dirflag},~{fpsr},~{flags}"() #9, !srcloc !40
  br label %80

80:                                               ; preds = %79
  br label %81

81:                                               ; preds = %80
  %82 = load i32, ptr %3, align 4, !tbaa !3
  %83 = sext i32 %82 to i64
  %84 = getelementptr inbounds [50 x %struct.anon], ptr @memory, i64 0, i64 %83
  %85 = getelementptr inbounds nuw %struct.anon, ptr %84, i32 0, i32 2
  store volatile i32 0, ptr %85, align 16, !tbaa !12
  %86 = call i32 @pthread_mutex_unlock(ptr noundef @alloc_lock) #9
  store i32 1, ptr %4, align 4
  br label %92

87:                                               ; preds = %69, %28
  %88 = load i32, ptr %3, align 4, !tbaa !3
  %89 = load ptr, ptr %2, align 8, !tbaa !7
  %90 = call i32 (ptr, ...) @printf(ptr noundef @.str.10, i32 noundef %88, ptr noundef %89)
  %91 = call i32 @pthread_mutex_unlock(ptr noundef @alloc_lock) #9
  store i32 1, ptr %4, align 4
  br label %92

92:                                               ; preds = %87, %81, %70
  call void @llvm.lifetime.end.p0(i64 4, ptr %3) #9
  ret void
}