; Function Attrs: nounwind uwtable
define void @blas_memory_free(ptr noundef %0) local_unnamed_addr #0 {
  %2 = tail call i32 @pthread_mutex_lock(ptr noundef nonnull @alloc_lock) #15
  br label %3

3:                                                ; preds = %1, %6
  %indvars.iv = phi i64 [ 0, %1 ], [ %indvars.iv.next, %6 ]
  %4 = getelementptr inbounds nuw [50 x %struct.anon], ptr @memory, i64 0, i64 %indvars.iv, i32 1
  %5 = load volatile ptr, ptr %4, align 8, !tbaa !19
  %.not = icmp eq ptr %5, %0
  br i1 %.not, label %.thread, label %6

6:                                                ; preds = %3
  %indvars.iv.next = add nuw nsw i64 %indvars.iv, 1
  %exitcond.not = icmp eq i64 %indvars.iv.next, 50
  br i1 %exitcond.not, label %.critedge, label %3, !llvm.loop !35

.critedge:                                        ; preds = %6
  %.b = load i1, ptr @memory_overflowed, align 4
  br i1 %.b, label %.lr.ph, label %18

.lr.ph:                                           ; preds = %.critedge
  %7 = load ptr, ptr @newmemory, align 8, !tbaa !14
  %invariant.gep = getelementptr i8, ptr %7, i64 -3192
  br label %8

.critedge3.thread:                                ; preds = %10
  tail call void asm sideeffect "", "~{memory},~{dirflag},~{fpsr},~{flags}"() #15, !srcloc !36
  br label %18

8:                                                ; preds = %.lr.ph, %10
  %indvars.iv31 = phi i64 [ 50, %.lr.ph ], [ %indvars.iv.next32, %10 ]
  %gep = getelementptr %struct.newmemstruct, ptr %invariant.gep, i64 %indvars.iv31
  %9 = load volatile ptr, ptr %gep, align 8, !tbaa !27
  %.not18 = icmp eq ptr %9, %0
  br i1 %.not18, label %11, label %10

10:                                               ; preds = %8
  %indvars.iv.next32 = add nuw nsw i64 %indvars.iv31, 1
  %exitcond34.not = icmp eq i64 %indvars.iv.next32, 562
  br i1 %exitcond34.not, label %.critedge3.thread, label %8, !llvm.loop !37

11:                                               ; preds = %8
  tail call void asm sideeffect "", "~{memory},~{dirflag},~{fpsr},~{flags}"() #15, !srcloc !36
  %12 = load ptr, ptr @newmemory, align 8, !tbaa !14
  %13 = and i64 %indvars.iv31, 4294967295
  %14 = getelementptr %struct.newmemstruct, ptr %12, i64 %13
  %15 = getelementptr i8, ptr %14, i64 -3184
  store volatile i32 0, ptr %15, align 8, !tbaa !16
  br label %20

.thread:                                          ; preds = %3
  tail call void asm sideeffect "", "~{memory},~{dirflag},~{fpsr},~{flags}"() #15, !srcloc !38
  %16 = and i64 %indvars.iv, 4294967295
  %17 = getelementptr inbounds nuw [50 x %struct.anon], ptr @memory, i64 0, i64 %16, i32 2
  store volatile i32 0, ptr %17, align 16, !tbaa !8
  br label %20

18:                                               ; preds = %.critedge3.thread, %.critedge
  %.1 = phi i32 [ 50, %.critedge ], [ 562, %.critedge3.thread ]
  %19 = tail call i32 (ptr, ...) @printf(ptr noundef nonnull dereferenceable(1) @.str.10, i32 noundef %.1, ptr noundef %0)
  br label %20

20:                                               ; preds = %18, %.thread, %11
  %21 = tail call i32 @pthread_mutex_unlock(ptr noundef nonnull @alloc_lock) #15
  ret void
}